; Function Attrs: mustprogress nounwind uwtable
define internal void @_ZN9grpc_core12_GLOBAL__N_122XdsServerConfigFetcher15ListenerWatcher23FilterChainMatchManager18RouteConfigWatcherD0Ev(ptr noundef nonnull align 8 dereferenceable(56) %this) unnamed_addr #7 align 2 {
entry:
  store ptr getelementptr inbounds ({ [8 x ptr] }, ptr @_ZTVN9grpc_core12_GLOBAL__N_122XdsServerConfigFetcher15ListenerWatcher23FilterChainMatchManager18RouteConfigWatcherE, i64 0, i32 0, i64 2), ptr %this, align 8
  %filter_chain_match_manager_.i = getelementptr inbounds i8, ptr %this, i64 48
  %filter_chain_match_manager_.val.i = load ptr, ptr %filter_chain_match_manager_.i, align 8
  %cmp.not.i.i = icmp eq ptr %filter_chain_match_manager_.val.i, null
  br i1 %cmp.not.i.i, label %_ZN9grpc_core12_GLOBAL__N_122XdsServerConfigFetcher15ListenerWatcher23FilterChainMatchManager18RouteConfigWatcherD2Ev.exit, label %if.then.i.i

if.then.i.i:                                      ; preds = %entry
  %refs_.i.i.i = getelementptr inbounds i8, ptr %filter_chain_match_manager_.val.i, i64 8
  %0 = atomicrmw sub ptr %refs_.i.i.i, i64 1 acq_rel, align 8
  %cmp.not.i.i.i = icmp eq i64 %0, 1
  br i1 %cmp.not.i.i.i, label %delete.notnull.i.i.i, label %_ZN9grpc_core12_GLOBAL__N_122XdsServerConfigFetcher15ListenerWatcher23FilterChainMatchManager18RouteConfigWatcherD2Ev.exit

delete.notnull.i.i.i:                             ; preds = %if.then.i.i
  %vtable.i.i.i = load ptr, ptr %filter_chain_match_manager_.val.i, align 8
  %vfn.i.i.i = getelementptr inbounds i8, ptr %vtable.i.i.i, i64 16
  %1 = load ptr, ptr %vfn.i.i.i, align 8
  tail call void %1(ptr noundef nonnull align 8 dereferenceable(16) %filter_chain_match_manager_.val.i) #26
  br label %_ZN9grpc_core12_GLOBAL__N_122XdsServerConfigFetcher15ListenerWatcher23FilterChainMatchManager18RouteConfigWatcherD2Ev.exit

_ZN9grpc_core12_GLOBAL__N_122XdsServerConfigFetcher15ListenerWatcher23FilterChainMatchManager18RouteConfigWatcherD2Ev.exit: ; preds = %entry, %if.then.i.i, %delete.notnull.i.i.i
  %resource_name_.i = getelementptr inbounds i8, ptr %this, i64 16
  tail call void @_ZNSt7__cxx1112basic_stringIcSt11char_traitsIcESaIcEED1Ev(ptr noundef nonnull align 8 dereferenceable(32) %resource_name_.i) #26
  tail call void @_ZdlPv(ptr noundef nonnull %this) #29
  ret void
}